target datalayout = "e-m:e-p270:32:32-p271:32:32-p272:64:64-i64:64-i128:128-f80:128-n8:16:32:64-S128"
target triple = "x86_64-pc-linux-gnu"

@libctx = internal global ptr null, align 8
@.str.14 = private unnamed_addr constant [29 x i8] c"../openssl/test/sslapitest.c\00", align 1
@cert = internal global ptr null, align 8
@privkey = internal global ptr null, align 8
@.str.157 = private unnamed_addr constant [67 x i8] c"create_ssl_objects(sctx, cctx, &serverssl, &clientssl, NULL, NULL)\00", align 1
@.str.158 = private unnamed_addr constant [60 x i8] c"create_ssl_connection(serverssl, clientssl, SSL_ERROR_NONE)\00", align 1
@.str.193 = private unnamed_addr constant [3 x i8] c"-1\00", align 1
@.str.218 = private unnamed_addr constant [2 x i8] c"0\00", align 1
@.str.223 = private unnamed_addr constant [2 x i8] c"1\00", align 1
@.str.266 = private unnamed_addr constant [7 x i8] c"bretry\00", align 1
@.str.283 = private unnamed_addr constant [16 x i8] c"BIO_up_ref(tmp)\00", align 1
@.str.285 = private unnamed_addr constant [21 x i8] c"SSL_ERROR_WANT_WRITE\00", align 1
@.str.404 = private unnamed_addr constant [29 x i8] c"SSL_get_error(serverssl, -1)\00", align 1
@.str.900 = private unnamed_addr constant [24 x i8] c"SSL_shutdown(clientssl)\00", align 1
@.str.906 = private unnamed_addr constant [24 x i8] c"SSL_shutdown(serverssl)\00", align 1
@.str.910 = private unnamed_addr constant [105 x i8] c"create_ssl_ctx_pair(libctx, TLS_server_method(), TLS_client_method(), 0, 0, &sctx, &cctx, cert, privkey)\00", align 1

; Function Attrs: nounwind uwtable
define internal i32 @test_async_shutdown() #0 {
  %1 = alloca ptr, align 8
  %2 = alloca ptr, align 8
  %3 = alloca ptr, align 8
  %4 = alloca ptr, align 8
  %5 = alloca i32, align 4
  %6 = alloca ptr, align 8
  %7 = alloca ptr, align 8
  call void @llvm.lifetime.start.p0(i64 8, ptr %1) #9
  store ptr null, ptr %1, align 8, !tbaa !19
  call void @llvm.lifetime.start.p0(i64 8, ptr %2) #9
  store ptr null, ptr %2, align 8, !tbaa !19
  call void @llvm.lifetime.start.p0(i64 8, ptr %3) #9
  store ptr null, ptr %3, align 8, !tbaa !21
  call void @llvm.lifetime.start.p0(i64 8, ptr %4) #9
  store ptr null, ptr %4, align 8, !tbaa !21
  call void @llvm.lifetime.start.p0(i64 4, ptr %5) #9
  store i32 0, ptr %5, align 4, !tbaa !13
  call void @llvm.lifetime.start.p0(i64 8, ptr %6) #9
  %8 = call ptr @bio_s_always_retry()
  %9 = call ptr @BIO_new(ptr noundef %8)
  store ptr %9, ptr %6, align 8, !tbaa !29
  call void @llvm.lifetime.start.p0(i64 8, ptr %7) #9
  store ptr null, ptr %7, align 8, !tbaa !29
  %10 = load ptr, ptr %6, align 8, !tbaa !29
  %11 = call i32 @test_ptr(ptr noundef @.str.14, i32 noundef 8836, ptr noundef @.str.266, ptr noundef %10)
  %12 = icmp ne i32 %11, 0
  br i1 %12, label %14, label %13

13:                                               ; preds = %0
  br label %105

14:                                               ; preds = %0
  %15 = load ptr, ptr @libctx, align 8, !tbaa !4
  %16 = call ptr @TLS_server_method()
  %17 = call ptr @TLS_client_method()
  %18 = load ptr, ptr @cert, align 8, !tbaa !11
  %19 = load ptr, ptr @privkey, align 8, !tbaa !11
  %20 = call i32 @create_ssl_ctx_pair(ptr noundef %15, ptr noundef %16, ptr noundef %17, i32 noundef 0, i32 noundef 0, ptr noundef %2, ptr noundef %1, ptr noundef %18, ptr noundef %19)
  %21 = icmp ne i32 %20, 0
  %22 = zext i1 %21 to i32
  %23 = call i32 @test_true(ptr noundef @.str.14, i32 noundef 8842, ptr noundef @.str.910, i32 noundef %22)
  %24 = icmp ne i32 %23, 0
  br i1 %24, label %26, label %25

25:                                               ; preds = %14
  br label %105

26:                                               ; preds = %14
  %27 = load ptr, ptr %2, align 8, !tbaa !19
  %28 = load ptr, ptr %1, align 8, !tbaa !19
  %29 = call i32 @create_ssl_objects(ptr noundef %27, ptr noundef %28, ptr noundef %4, ptr noundef %3, ptr noundef null, ptr noundef null)
  %30 = icmp ne i32 %29, 0
  %31 = zext i1 %30 to i32
  %32 = call i32 @test_true(ptr noundef @.str.14, i32 noundef 8846, ptr noundef @.str.157, i32 noundef %31)
  %33 = icmp ne i32 %32, 0
  br i1 %33, label %35, label %34

34:                                               ; preds = %26
  br label %105

35:                                               ; preds = %26
  %36 = load ptr, ptr %4, align 8, !tbaa !21
  %37 = load ptr, ptr %3, align 8, !tbaa !21
  %38 = call i32 @create_ssl_connection(ptr noundef %36, ptr noundef %37, i32 noundef 0)
  %39 = icmp ne i32 %38, 0
  %40 = zext i1 %39 to i32
  %41 = call i32 @test_true(ptr noundef @.str.14, i32 noundef 8849, ptr noundef @.str.158, i32 noundef %40)
  %42 = icmp ne i32 %41, 0
  br i1 %42, label %44, label %43

43:                                               ; preds = %35
  br label %105

44:                                               ; preds = %35
  %45 = load ptr, ptr %3, align 8, !tbaa !21
  %46 = call i32 @SSL_shutdown(ptr noundef %45)
  %47 = call i32 @test_int_eq(ptr noundef @.str.14, i32 noundef 8853, ptr noundef @.str.900, ptr noundef @.str.218, i32 noundef %46, i32 noundef 0)
  %48 = icmp ne i32 %47, 0
  br i1 %48, label %50, label %49

49:                                               ; preds = %44
  br label %105

50:                                               ; preds = %44
  %51 = load ptr, ptr %4, align 8, !tbaa !21
  %52 = call ptr @SSL_get_wbio(ptr noundef %51)
  store ptr %52, ptr %7, align 8, !tbaa !29
  %53 = load ptr, ptr %7, align 8, !tbaa !29
  %54 = call i32 @BIO_up_ref(ptr noundef %53)
  %55 = icmp ne i32 %54, 0
  %56 = zext i1 %55 to i32
  %57 = call i32 @test_true(ptr noundef @.str.14, i32 noundef 8857, ptr noundef @.str.283, i32 noundef %56)
  %58 = icmp ne i32 %57, 0
  br i1 %58, label %60, label %59

59:                                               ; preds = %50
  store ptr null, ptr %7, align 8, !tbaa !29
  br label %105

60:                                               ; preds = %50
  %61 = load ptr, ptr %4, align 8, !tbaa !21
  %62 = load ptr, ptr %6, align 8, !tbaa !29
  call void @SSL_set0_wbio(ptr noundef %61, ptr noundef %62)
  store ptr null, ptr %6, align 8, !tbaa !29
  %63 = load ptr, ptr %4, align 8, !tbaa !21
  %64 = call i32 @SSL_shutdown(ptr noundef %63)
  %65 = call i32 @test_int_eq(ptr noundef @.str.14, i32 noundef 8865, ptr noundef @.str.906, ptr noundef @.str.193, i32 noundef %64, i32 noundef -1)
  %66 = icmp ne i32 %65, 0
  br i1 %66, label %67, label %72

67:                                               ; preds = %60
  %68 = load ptr, ptr %4, align 8, !tbaa !21
  %69 = call i32 @SSL_get_error(ptr noundef %68, i32 noundef -1)
  %70 = call i32 @test_int_eq(ptr noundef @.str.14, i32 noundef 8866, ptr noundef @.str.404, ptr noundef @.str.285, i32 noundef %69, i32 noundef 3)
  %71 = icmp ne i32 %70, 0
  br i1 %71, label %73, label %72

72:                                               ; preds = %67, %60
  br label %105

73:                                               ; preds = %67
  %74 = load ptr, ptr %4, align 8, !tbaa !21
  %75 = call i32 @SSL_shutdown(ptr noundef %74)
  %76 = call i32 @test_int_eq(ptr noundef @.str.14, i32 noundef 8870, ptr noundef @.str.906, ptr noundef @.str.193, i32 noundef %75, i32 noundef -1)
  %77 = icmp ne i32 %76, 0
  br i1 %77, label %78, label %83

78:                                               ; preds = %73
  %79 = load ptr, ptr %4, align 8, !tbaa !21
  %80 = call i32 @SSL_get_error(ptr noundef %79, i32 noundef -1)
  %81 = call i32 @test_int_eq(ptr noundef @.str.14, i32 noundef 8871, ptr noundef @.str.404, ptr noundef @.str.285, i32 noundef %80, i32 noundef 3)
  %82 = icmp ne i32 %81, 0
  br i1 %82, label %84, label %83

83:                                               ; preds = %78, %73
  br label %105

84:                                               ; preds = %78
  %85 = load ptr, ptr %4, align 8, !tbaa !21
  %86 = load ptr, ptr %7, align 8, !tbaa !29
  call void @SSL_set0_wbio(ptr noundef %85, ptr noundef %86)
  store ptr null, ptr %7, align 8, !tbaa !29
  %87 = load ptr, ptr %4, align 8, !tbaa !21
  %88 = call i32 @SSL_shutdown(ptr noundef %87)
  %89 = call i32 @test_int_eq(ptr noundef @.str.14, i32 noundef 8878, ptr noundef @.str.906, ptr noundef @.str.218, i32 noundef %88, i32 noundef 0)
  %90 = icmp ne i32 %89, 0
  br i1 %90, label %92, label %91

91:                                               ; preds = %84
  br label %105

92:                                               ; preds = %84
  %93 = load ptr, ptr %4, align 8, !tbaa !21
  %94 = call i32 @SSL_shutdown(ptr noundef %93)
  %95 = call i32 @test_int_eq(ptr noundef @.str.14, i32 noundef 8882, ptr noundef @.str.906, ptr noundef @.str.223, i32 noundef %94, i32 noundef 1)
  %96 = icmp ne i32 %95, 0
  br i1 %96, label %98, label %97

97:                                               ; preds = %92
  br label %105

98:                                               ; preds = %92
  %99 = load ptr, ptr %3, align 8, !tbaa !21
  %100 = call i32 @SSL_shutdown(ptr noundef %99)
  %101 = call i32 @test_int_eq(ptr noundef @.str.14, i32 noundef 8886, ptr noundef @.str.900, ptr noundef @.str.223, i32 noundef %100, i32 noundef 1)
  %102 = icmp ne i32 %101, 0
  br i1 %102, label %104, label %103

103:                                              ; preds = %98
  br label %105

104:                                              ; preds = %98
  store i32 1, ptr %5, align 4, !tbaa !13
  br label %105

105:                                              ; preds = %104, %103, %97, %91, %83, %72, %59, %49, %43, %34, %25, %13
  %106 = load ptr, ptr %4, align 8, !tbaa !21
  call void @SSL_free(ptr noundef %106)
  %107 = load ptr, ptr %3, align 8, !tbaa !21
  call void @SSL_free(ptr noundef %107)
  %108 = load ptr, ptr %2, align 8, !tbaa !19
  call void @SSL_CTX_free(ptr noundef %108)
  %109 = load ptr, ptr %1, align 8, !tbaa !19
  call void @SSL_CTX_free(ptr noundef %109)
  %110 = load ptr, ptr %6, align 8, !tbaa !29
  %111 = call i32 @BIO_free(ptr noundef %110)
  %112 = load ptr, ptr %7, align 8, !tbaa !29
  %113 = call i32 @BIO_free(ptr noundef %112)
  %114 = load i32, ptr %5, align 4, !tbaa !13
  call void @llvm.lifetime.end.p0(i64 8, ptr %7) #9
  call void @llvm.lifetime.end.p0(i64 8, ptr %6) #9
  call void @llvm.lifetime.end.p0(i64 4, ptr %5) #9
  call void @llvm.lifetime.end.p0(i64 8, ptr %4) #9
  call void @llvm.lifetime.end.p0(i64 8, ptr %3) #9
  call void @llvm.lifetime.end.p0(i64 8, ptr %2) #9
  call void @llvm.lifetime.end.p0(i64 8, ptr %1) #9
  ret i32 %114
}