; Function Attrs: nounwind uwtable
define internal range(i32 0, 2) i32 @test_async_shutdown() #1 {
  %1 = alloca ptr, align 8
  %2 = alloca ptr, align 8
  %3 = alloca ptr, align 8
  %4 = alloca ptr, align 8
  call void @llvm.lifetime.start.p0(i64 8, ptr nonnull %1) #24
  store ptr null, ptr %1, align 8, !tbaa !19
  call void @llvm.lifetime.start.p0(i64 8, ptr nonnull %2) #24
  store ptr null, ptr %2, align 8, !tbaa !19
  call void @llvm.lifetime.start.p0(i64 8, ptr nonnull %3) #24
  store ptr null, ptr %3, align 8, !tbaa !21
  call void @llvm.lifetime.start.p0(i64 8, ptr nonnull %4) #24
  store ptr null, ptr %4, align 8, !tbaa !21
  %5 = tail call ptr @bio_s_always_retry() #24
  %6 = tail call ptr @BIO_new(ptr noundef %5) #24
  %7 = tail call i32 @test_ptr(ptr noundef nonnull @.str.14, i32 noundef 8836, ptr noundef nonnull @.str.266, ptr noundef %6) #24
  %.not = icmp eq i32 %7, 0
  br i1 %.not, label %73, label %8

8:                                                ; preds = %0
  %9 = load ptr, ptr @libctx, align 8, !tbaa !4
  %10 = tail call ptr @TLS_server_method() #24
  %11 = tail call ptr @TLS_client_method() #24
  %12 = load ptr, ptr @cert, align 8, !tbaa !11
  %13 = load ptr, ptr @privkey, align 8, !tbaa !11
  %14 = call i32 @create_ssl_ctx_pair(ptr noundef %9, ptr noundef %10, ptr noundef %11, i32 noundef 0, i32 noundef 0, ptr noundef nonnull %2, ptr noundef nonnull %1, ptr noundef %12, ptr noundef %13) #24
  %15 = icmp ne i32 %14, 0
  %16 = zext i1 %15 to i32
  %17 = call i32 @test_true(ptr noundef nonnull @.str.14, i32 noundef 8842, ptr noundef nonnull @.str.910, i32 noundef %16) #24
  %.not8 = icmp eq i32 %17, 0
  br i1 %.not8, label %73, label %18

18:                                               ; preds = %8
  %19 = load ptr, ptr %2, align 8, !tbaa !19
  %20 = load ptr, ptr %1, align 8, !tbaa !19
  %21 = call i32 @create_ssl_objects(ptr noundef %19, ptr noundef %20, ptr noundef nonnull %4, ptr noundef nonnull %3, ptr noundef null, ptr noundef null) #24
  %22 = icmp ne i32 %21, 0
  %23 = zext i1 %22 to i32
  %24 = call i32 @test_true(ptr noundef nonnull @.str.14, i32 noundef 8846, ptr noundef nonnull @.str.157, i32 noundef %23) #24
  %.not9 = icmp eq i32 %24, 0
  br i1 %.not9, label %73, label %25

25:                                               ; preds = %18
  %26 = load ptr, ptr %4, align 8, !tbaa !21
  %27 = load ptr, ptr %3, align 8, !tbaa !21
  %28 = call i32 @create_ssl_connection(ptr noundef %26, ptr noundef %27, i32 noundef 0) #24
  %29 = icmp ne i32 %28, 0
  %30 = zext i1 %29 to i32
  %31 = call i32 @test_true(ptr noundef nonnull @.str.14, i32 noundef 8849, ptr noundef nonnull @.str.158, i32 noundef %30) #24
  %.not10 = icmp eq i32 %31, 0
  br i1 %.not10, label %73, label %32

32:                                               ; preds = %25
  %33 = load ptr, ptr %3, align 8, !tbaa !21
  %34 = call i32 @SSL_shutdown(ptr noundef %33) #24
  %35 = call i32 @test_int_eq(ptr noundef nonnull @.str.14, i32 noundef 8853, ptr noundef nonnull @.str.900, ptr noundef nonnull @.str.218, i32 noundef %34, i32 noundef 0) #24
  %.not11 = icmp eq i32 %35, 0
  br i1 %.not11, label %73, label %36

36:                                               ; preds = %32
  %37 = load ptr, ptr %4, align 8, !tbaa !21
  %38 = call ptr @SSL_get_wbio(ptr noundef %37) #24
  %39 = call i32 @BIO_up_ref(ptr noundef %38) #24
  %40 = icmp ne i32 %39, 0
  %41 = zext i1 %40 to i32
  %42 = call i32 @test_true(ptr noundef nonnull @.str.14, i32 noundef 8857, ptr noundef nonnull @.str.283, i32 noundef %41) #24
  %.not12 = icmp eq i32 %42, 0
  br i1 %.not12, label %73, label %43

43:                                               ; preds = %36
  %44 = load ptr, ptr %4, align 8, !tbaa !21
  call void @SSL_set0_wbio(ptr noundef %44, ptr noundef %6) #24
  %45 = load ptr, ptr %4, align 8, !tbaa !21
  %46 = call i32 @SSL_shutdown(ptr noundef %45) #24
  %47 = call i32 @test_int_eq(ptr noundef nonnull @.str.14, i32 noundef 8865, ptr noundef nonnull @.str.906, ptr noundef nonnull @.str.193, i32 noundef %46, i32 noundef -1) #24
  %.not13 = icmp eq i32 %47, 0
  br i1 %.not13, label %73, label %48

48:                                               ; preds = %43
  %49 = load ptr, ptr %4, align 8, !tbaa !21
  %50 = call i32 @SSL_get_error(ptr noundef %49, i32 noundef -1) #24
  %51 = call i32 @test_int_eq(ptr noundef nonnull @.str.14, i32 noundef 8866, ptr noundef nonnull @.str.404, ptr noundef nonnull @.str.285, i32 noundef %50, i32 noundef 3) #24
  %.not14 = icmp eq i32 %51, 0
  br i1 %.not14, label %73, label %52

52:                                               ; preds = %48
  %53 = load ptr, ptr %4, align 8, !tbaa !21
  %54 = call i32 @SSL_shutdown(ptr noundef %53) #24
  %55 = call i32 @test_int_eq(ptr noundef nonnull @.str.14, i32 noundef 8870, ptr noundef nonnull @.str.906, ptr noundef nonnull @.str.193, i32 noundef %54, i32 noundef -1) #24
  %.not15 = icmp eq i32 %55, 0
  br i1 %.not15, label %73, label %56

56:                                               ; preds = %52
  %57 = load ptr, ptr %4, align 8, !tbaa !21
  %58 = call i32 @SSL_get_error(ptr noundef %57, i32 noundef -1) #24
  %59 = call i32 @test_int_eq(ptr noundef nonnull @.str.14, i32 noundef 8871, ptr noundef nonnull @.str.404, ptr noundef nonnull @.str.285, i32 noundef %58, i32 noundef 3) #24
  %.not16 = icmp eq i32 %59, 0
  br i1 %.not16, label %73, label %60

60:                                               ; preds = %56
  %61 = load ptr, ptr %4, align 8, !tbaa !21
  call void @SSL_set0_wbio(ptr noundef %61, ptr noundef %38) #24
  %62 = load ptr, ptr %4, align 8, !tbaa !21
  %63 = call i32 @SSL_shutdown(ptr noundef %62) #24
  %64 = call i32 @test_int_eq(ptr noundef nonnull @.str.14, i32 noundef 8878, ptr noundef nonnull @.str.906, ptr noundef nonnull @.str.218, i32 noundef %63, i32 noundef 0) #24
  %.not17 = icmp eq i32 %64, 0
  br i1 %.not17, label %73, label %65

65:                                               ; preds = %60
  %66 = load ptr, ptr %4, align 8, !tbaa !21
  %67 = call i32 @SSL_shutdown(ptr noundef %66) #24
  %68 = call i32 @test_int_eq(ptr noundef nonnull @.str.14, i32 noundef 8882, ptr noundef nonnull @.str.906, ptr noundef nonnull @.str.223, i32 noundef %67, i32 noundef 1) #24
  %.not18 = icmp eq i32 %68, 0
  br i1 %.not18, label %73, label %69

69:                                               ; preds = %65
  %70 = load ptr, ptr %3, align 8, !tbaa !21
  %71 = call i32 @SSL_shutdown(ptr noundef %70) #24
  %72 = call i32 @test_int_eq(ptr noundef nonnull @.str.14, i32 noundef 8886, ptr noundef nonnull @.str.900, ptr noundef nonnull @.str.223, i32 noundef %71, i32 noundef 1) #24
  %.not19 = icmp ne i32 %72, 0
  %spec.select = zext i1 %.not19 to i32
  br label %73

73:                                               ; preds = %69, %36, %65, %60, %52, %56, %43, %48, %32, %25, %18, %8, %0
  %.07 = phi i32 [ 0, %65 ], [ 0, %60 ], [ 0, %56 ], [ 0, %52 ], [ 0, %48 ], [ 0, %43 ], [ 0, %32 ], [ 0, %25 ], [ 0, %18 ], [ 0, %8 ], [ 0, %0 ], [ 0, %36 ], [ %spec.select, %69 ]
  %.06 = phi ptr [ null, %65 ], [ null, %60 ], [ null, %56 ], [ null, %52 ], [ null, %48 ], [ null, %43 ], [ %6, %32 ], [ %6, %25 ], [ %6, %18 ], [ %6, %8 ], [ %6, %0 ], [ %6, %36 ], [ null, %69 ]
  %.0 = phi ptr [ null, %65 ], [ null, %60 ], [ %38, %56 ], [ %38, %52 ], [ %38, %48 ], [ %38, %43 ], [ null, %32 ], [ null, %25 ], [ null, %18 ], [ null, %8 ], [ null, %0 ], [ null, %36 ], [ null, %69 ]
  %74 = load ptr, ptr %4, align 8, !tbaa !21
  call void @SSL_free(ptr noundef %74) #24
  %75 = load ptr, ptr %3, align 8, !tbaa !21
  call void @SSL_free(ptr noundef %75) #24
  %76 = load ptr, ptr %2, align 8, !tbaa !19
  call void @SSL_CTX_free(ptr noundef %76) #24
  %77 = load ptr, ptr %1, align 8, !tbaa !19
  call void @SSL_CTX_free(ptr noundef %77) #24
  %78 = call i32 @BIO_free(ptr noundef %.06) #24
  %79 = call i32 @BIO_free(ptr noundef %.0) #24
  call void @llvm.lifetime.end.p0(i64 8, ptr nonnull %4) #24
  call void @llvm.lifetime.end.p0(i64 8, ptr nonnull %3) #24
  call void @llvm.lifetime.end.p0(i64 8, ptr nonnull %2) #24
  call void @llvm.lifetime.end.p0(i64 8, ptr nonnull %1) #24
  ret i32 %.07
}